; Function Attrs: nounwind sspstrong uwtable
define dso_local void @tcg_gen_movi_i32(ptr noundef %0, i32 noundef %1) local_unnamed_addr #2 {
  %3 = tail call ptr @tcg_constant_i32(i32 noundef %1) #6
  %.not.i = icmp eq ptr %0, %3
  br i1 %.not.i, label %tcg_gen_mov_i32.exit, label %4

4:                                                ; preds = %2
  %5 = tail call align 8 ptr @llvm.threadlocal.address.p0(ptr align 8 @tcg_ctx)
  %6 = load ptr, ptr %5, align 8
  %7 = ptrtoint ptr %0 to i64
  %8 = getelementptr inbounds nuw i8, ptr %6, i64 %7
  %9 = ptrtoint ptr %8 to i64
  %10 = ptrtoint ptr %3 to i64
  %11 = getelementptr inbounds nuw i8, ptr %6, i64 %10
  %12 = ptrtoint ptr %11 to i64
  %13 = tail call ptr @tcg_gen_op2(i32 noundef 5, i32 noundef 0, i64 noundef %9, i64 noundef %12)
  br label %tcg_gen_mov_i32.exit

tcg_gen_mov_i32.exit:                             ; preds = %2, %4
  ret void
}